; Function Attrs: nounwind uwtable
define noalias nonnull ptr @l_StateT_instAlternative___rarg(ptr noundef %0, ptr noundef %1) #0 {
  %3 = tail call ptr @l_StateT_instMonad___rarg(ptr noundef %0)
  %4 = getelementptr inbounds nuw i8, ptr %3, i64 8
  %5 = load ptr, ptr %4, align 8, !tbaa !9
  %6 = ptrtoint ptr %5 to i64
  %7 = and i64 %6, 1
  %.not = icmp eq i64 %7, 0
  br i1 %.not, label %8, label %lean_inc.exit16

8:                                                ; preds = %2
  %.val.i = load i32, ptr %5, align 4, !tbaa !4
  %9 = icmp sgt i32 %.val.i, 0
  br i1 %9, label %10, label %12, !prof !13

10:                                               ; preds = %8
  %11 = add nuw i32 %.val.i, 1
  store i32 %11, ptr %5, align 4, !tbaa !4
  br label %lean_inc.exit16

12:                                               ; preds = %8
  %.not.i17 = icmp eq i32 %.val.i, 0
  br i1 %.not.i17, label %lean_inc.exit16, label %13

13:                                               ; preds = %12
  tail call void @lean_inc_ref_cold(ptr noundef nonnull %5) #3
  br label %lean_inc.exit16

lean_inc.exit16:                                  ; preds = %13, %12, %10, %2
  %14 = ptrtoint ptr %3 to i64
  %15 = and i64 %14, 1
  %.not22 = icmp eq i64 %15, 0
  br i1 %.not22, label %16, label %lean_dec.exit

16:                                               ; preds = %lean_inc.exit16
  %17 = load i32, ptr %3, align 4, !tbaa !4
  %18 = icmp sgt i32 %17, 1
  br i1 %18, label %19, label %21, !prof !13

19:                                               ; preds = %16
  %20 = add nsw i32 %17, -1
  store i32 %20, ptr %3, align 4, !tbaa !4
  br label %lean_dec.exit

21:                                               ; preds = %16
  %.not.i = icmp eq i32 %17, 0
  br i1 %.not.i, label %lean_dec.exit, label %22

22:                                               ; preds = %21
  tail call void @lean_dec_ref_cold(ptr noundef nonnull %3) #3
  br label %lean_dec.exit

lean_dec.exit:                                    ; preds = %22, %21, %19, %lean_inc.exit16
  %23 = ptrtoint ptr %1 to i64
  %24 = and i64 %23, 1
  %.not23 = icmp eq i64 %24, 0
  br i1 %.not23, label %25, label %lean_inc.exit

25:                                               ; preds = %lean_dec.exit
  %.val.i18 = load i32, ptr %1, align 4, !tbaa !4
  %26 = icmp sgt i32 %.val.i18, 0
  br i1 %26, label %27, label %29, !prof !13

27:                                               ; preds = %25
  %28 = add nuw i32 %.val.i18, 1
  store i32 %28, ptr %1, align 4, !tbaa !4
  br label %lean_inc.exit

29:                                               ; preds = %25
  %.not.i19 = icmp eq i32 %.val.i18, 0
  br i1 %.not.i19, label %lean_inc.exit, label %30

30:                                               ; preds = %29
  tail call void @lean_inc_ref_cold(ptr noundef nonnull %1) #3
  br label %lean_inc.exit

lean_inc.exit:                                    ; preds = %30, %29, %27, %lean_dec.exit
  tail call void @lean_inc_heartbeat() #3
  %31 = tail call noalias ptr @mi_malloc_small(i64 noundef 32) #3
  %32 = icmp eq ptr %31, null
  br i1 %32, label %33, label %lean_alloc_closure.exit

33:                                               ; preds = %lean_inc.exit
  tail call void @lean_internal_panic_out_of_memory() #4
  unreachable

lean_alloc_closure.exit:                          ; preds = %lean_inc.exit
  %34 = getelementptr inbounds nuw i8, ptr %31, i64 4
  store i32 1, ptr %31, align 4, !tbaa !4
  store i32 -184549344, ptr %34, align 4
  %35 = getelementptr inbounds nuw i8, ptr %31, i64 8
  store ptr @l_StateT_failure___rarg___boxed, ptr %35, align 8, !tbaa !9
  %36 = getelementptr inbounds nuw i8, ptr %31, i64 16
  store i16 3, ptr %36, align 8, !tbaa !11
  %37 = getelementptr inbounds nuw i8, ptr %31, i64 18
  store i16 1, ptr %37, align 2, !tbaa !11
  %38 = getelementptr inbounds nuw i8, ptr %31, i64 24
  store ptr %1, ptr %38, align 8, !tbaa !9
  tail call void @lean_inc_heartbeat() #3
  %39 = tail call noalias ptr @mi_malloc_small(i64 noundef 32) #3
  %40 = icmp eq ptr %39, null
  br i1 %40, label %41, label %lean_alloc_closure.exit21

41:                                               ; preds = %lean_alloc_closure.exit
  tail call void @lean_internal_panic_out_of_memory() #4
  unreachable

lean_alloc_closure.exit21:                        ; preds = %lean_alloc_closure.exit
  %42 = getelementptr inbounds nuw i8, ptr %39, i64 4
  store i32 1, ptr %39, align 4, !tbaa !4
  store i32 -184549344, ptr %42, align 4
  %43 = getelementptr inbounds nuw i8, ptr %39, i64 8
  store ptr @l_StateT_orElse___rarg, ptr %43, align 8, !tbaa !9
  %44 = getelementptr inbounds nuw i8, ptr %39, i64 16
  store i16 5, ptr %44, align 8, !tbaa !11
  %45 = getelementptr inbounds nuw i8, ptr %39, i64 18
  store i16 1, ptr %45, align 2, !tbaa !11
  %46 = getelementptr inbounds nuw i8, ptr %39, i64 24
  store ptr %1, ptr %46, align 8, !tbaa !9
  tail call void @lean_inc_heartbeat() #3
  %47 = tail call noalias ptr @mi_malloc_small(i64 noundef 32) #3
  %48 = icmp eq ptr %47, null
  br i1 %48, label %49, label %lean_alloc_ctor.exit

49:                                               ; preds = %lean_alloc_closure.exit21
  tail call void @lean_internal_panic_out_of_memory() #4
  unreachable

lean_alloc_ctor.exit:                             ; preds = %lean_alloc_closure.exit21
  %50 = getelementptr inbounds nuw i8, ptr %47, i64 4
  store i32 1, ptr %47, align 4, !tbaa !4
  store i32 196640, ptr %50, align 4
  %51 = getelementptr inbounds nuw i8, ptr %47, i64 8
  store ptr %5, ptr %51, align 8, !tbaa !9
  %52 = getelementptr inbounds nuw i8, ptr %47, i64 16
  store ptr %31, ptr %52, align 8, !tbaa !9
  %53 = getelementptr inbounds nuw i8, ptr %47, i64 24
  store ptr %39, ptr %53, align 8, !tbaa !9
  ret ptr %47
}